target datalayout = "e-m:e-p270:32:32-p271:32:32-p272:64:64-i64:64-i128:128-f80:128-n8:16:32:64-S128"
target triple = "x86_64-pc-linux-gnu"

%struct.active_request_slot = type { ptr, i32, i32, i64, ptr, ptr, ptr, ptr, ptr }

@active_queue_head = internal global ptr null, align 8

; Function Attrs: nounwind uwtable
define dso_local void @finish_all_active_slots() #0 {
  %1 = alloca ptr, align 8
  call void @llvm.lifetime.start.p0(i64 8, ptr %1) #11
  %2 = load ptr, ptr @active_queue_head, align 8, !tbaa !88
  store ptr %2, ptr %1, align 8, !tbaa !88
  br label %3

3:                                                ; preds = %18, %0
  %4 = load ptr, ptr %1, align 8, !tbaa !88
  %5 = icmp ne ptr %4, null
  br i1 %5, label %6, label %19

6:                                                ; preds = %3
  %7 = load ptr, ptr %1, align 8, !tbaa !88
  %8 = getelementptr inbounds nuw %struct.active_request_slot, ptr %7, i32 0, i32 1
  %9 = load i32, ptr %8, align 8, !tbaa !97
  %10 = icmp ne i32 %9, 0
  br i1 %10, label %11, label %14

11:                                               ; preds = %6
  %12 = load ptr, ptr %1, align 8, !tbaa !88
  call void @run_active_slot(ptr noundef %12)
  %13 = load ptr, ptr @active_queue_head, align 8, !tbaa !88
  store ptr %13, ptr %1, align 8, !tbaa !88
  br label %18

14:                                               ; preds = %6
  %15 = load ptr, ptr %1, align 8, !tbaa !88
  %16 = getelementptr inbounds nuw %struct.active_request_slot, ptr %15, i32 0, i32 8
  %17 = load ptr, ptr %16, align 8, !tbaa !90
  store ptr %17, ptr %1, align 8, !tbaa !88
  br label %18

18:                                               ; preds = %14, %11
  br label %3, !llvm.loop !135

19:                                               ; preds = %3
  call void @llvm.lifetime.end.p0(i64 8, ptr %1) #11
  ret void
}