; Function Attrs: nounwind uwtable
define dso_local void @finish_all_active_slots() local_unnamed_addr #3 {
  %.05 = load ptr, ptr @active_queue_head, align 8, !tbaa !81
  %.not6 = icmp eq ptr %.05, null
  br i1 %.not6, label %._crit_edge, label %.lr.ph

.lr.ph:                                           ; preds = %0, %6
  %.07 = phi ptr [ %.0, %6 ], [ %.05, %0 ]
  %1 = getelementptr inbounds nuw i8, ptr %.07, i64 8
  %2 = load i32, ptr %1, align 8, !tbaa !90
  %.not4 = icmp eq i32 %2, 0
  br i1 %.not4, label %4, label %3

3:                                                ; preds = %.lr.ph
  tail call void @run_active_slot(ptr noundef nonnull %.07)
  br label %6

4:                                                ; preds = %.lr.ph
  %5 = getelementptr inbounds nuw i8, ptr %.07, i64 56
  br label %6

6:                                                ; preds = %4, %3
  %.1.in = phi ptr [ @active_queue_head, %3 ], [ %5, %4 ]
  %.0 = load ptr, ptr %.1.in, align 8, !tbaa !81
  %.not = icmp eq ptr %.0, null
  br i1 %.not, label %._crit_edge, label %.lr.ph, !llvm.loop !123

._crit_edge:                                      ; preds = %6, %0
  ret void
}